target datalayout = "e-m:e-p270:32:32-p271:32:32-p272:64:64-i64:64-i128:128-f80:128-n8:16:32:64-S128"
target triple = "x86_64-pc-linux-gnu"

%struct._SPI_connection = type { i64, ptr, i32, %struct.slist_head, ptr, ptr, ptr, i32, ptr, i8, i8, i64, ptr, i32 }
%struct.slist_head = type { %struct.slist_node }
%struct.slist_node = type { ptr }
%struct._SPI_plan = type { i32, i8, i8, ptr, ptr, i32, i32, i32, ptr, ptr, ptr }
%struct.SPIExecuteOptions = type { ptr, i8, i8, i8, i64, ptr, ptr }
%struct.ParamListInfoData = type { ptr, ptr, ptr, ptr, ptr, ptr, ptr, i32, [0 x %struct.ParamExternData] }
%struct.ParamExternData = type { i64, i8, i16, i32 }

@_SPI_current = internal global ptr null, align 8
@CurrentMemoryContext = external global ptr, align 8

; Function Attrs: inlinehint nounwind uwtable
define internal ptr @MemoryContextSwitchTo(ptr noundef %0) #4 {
  %2 = alloca ptr, align 8
  %3 = alloca ptr, align 8
  store ptr %0, ptr %2, align 8
  call void @llvm.lifetime.start.p0(i64 8, ptr %3) #9
  %4 = load ptr, ptr @CurrentMemoryContext, align 8
  store ptr %4, ptr %3, align 8
  %5 = load ptr, ptr %2, align 8
  store ptr %5, ptr @CurrentMemoryContext, align 8
  %6 = load ptr, ptr %3, align 8
  call void @llvm.lifetime.end.p0(i64 8, ptr %3) #9
  ret ptr %6
}

; Function Attrs: nounwind uwtable
define internal ptr @_SPI_procmem() #0 {
  %1 = load ptr, ptr @_SPI_current, align 8
  %2 = getelementptr inbounds nuw %struct._SPI_connection, ptr %1, i32 0, i32 4
  %3 = load ptr, ptr %2, align 8
  %4 = call ptr @MemoryContextSwitchTo(ptr noundef %3)
  ret ptr %4
}

; Function Attrs: nounwind uwtable
define internal ptr @_SPI_execmem() #0 {
  %1 = load ptr, ptr @_SPI_current, align 8
  %2 = getelementptr inbounds nuw %struct._SPI_connection, ptr %1, i32 0, i32 5
  %3 = load ptr, ptr %2, align 8
  %4 = call ptr @MemoryContextSwitchTo(ptr noundef %3)
  ret ptr %4
}

; Function Attrs: nounwind uwtable
define internal i32 @_SPI_end_call(i1 noundef zeroext %0) #0 {
  %2 = alloca i8, align 1
  %3 = zext i1 %0 to i8
  store i8 %3, ptr %2, align 1
  %4 = load i8, ptr %2, align 1, !range !4, !noundef !5
  %5 = trunc i8 %4 to i1
  br i1 %5, label %6, label %13

6:                                                ; preds = %1
  %7 = call ptr @_SPI_procmem()
  %8 = load ptr, ptr @_SPI_current, align 8
  %9 = getelementptr inbounds nuw %struct._SPI_connection, ptr %8, i32 0, i32 2
  store i32 0, ptr %9, align 8
  %10 = load ptr, ptr @_SPI_current, align 8
  %11 = getelementptr inbounds nuw %struct._SPI_connection, ptr %10, i32 0, i32 5
  %12 = load ptr, ptr %11, align 8
  call void @MemoryContextReset(ptr noundef %12)
  br label %13

13:                                               ; preds = %6, %1
  ret i32 0
}

; Function Attrs: nounwind uwtable
define internal ptr @_SPI_convert_params(i32 noundef %0, ptr noundef %1, ptr noundef %2, ptr noundef %3) #0 {
  %5 = alloca i32, align 4
  %6 = alloca ptr, align 8
  %7 = alloca ptr, align 8
  %8 = alloca ptr, align 8
  %9 = alloca ptr, align 8
  %10 = alloca i32, align 4
  %11 = alloca ptr, align 8
  store i32 %0, ptr %5, align 4
  store ptr %1, ptr %6, align 8
  store ptr %2, ptr %7, align 8
  store ptr %3, ptr %8, align 8
  call void @llvm.lifetime.start.p0(i64 8, ptr %9) #9
  %12 = load i32, ptr %5, align 4
  %13 = icmp sgt i32 %12, 0
  br i1 %13, label %14, label %63

14:                                               ; preds = %4
  %15 = load i32, ptr %5, align 4
  %16 = call ptr @makeParamList(i32 noundef %15)
  store ptr %16, ptr %9, align 8
  call void @llvm.lifetime.start.p0(i64 4, ptr %10) #9
  store i32 0, ptr %10, align 4
  br label %17

17:                                               ; preds = %59, %14
  %18 = load i32, ptr %10, align 4
  %19 = load i32, ptr %5, align 4
  %20 = icmp slt i32 %18, %19
  br i1 %20, label %22, label %21

21:                                               ; preds = %17
  call void @llvm.lifetime.end.p0(i64 4, ptr %10) #9
  br label %62

22:                                               ; preds = %17
  call void @llvm.lifetime.start.p0(i64 8, ptr %11) #9
  %23 = load ptr, ptr %9, align 8
  %24 = getelementptr inbounds nuw %struct.ParamListInfoData, ptr %23, i32 0, i32 8
  %25 = load i32, ptr %10, align 4
  %26 = sext i32 %25 to i64
  %27 = getelementptr inbounds [0 x %struct.ParamExternData], ptr %24, i64 0, i64 %26
  store ptr %27, ptr %11, align 8
  %28 = load ptr, ptr %7, align 8
  %29 = load i32, ptr %10, align 4
  %30 = sext i32 %29 to i64
  %31 = getelementptr inbounds i64, ptr %28, i64 %30
  %32 = load i64, ptr %31, align 8
  %33 = load ptr, ptr %11, align 8
  %34 = getelementptr inbounds nuw %struct.ParamExternData, ptr %33, i32 0, i32 0
  store i64 %32, ptr %34, align 8
  %35 = load ptr, ptr %8, align 8
  %36 = icmp ne ptr %35, null
  br i1 %36, label %37, label %45

37:                                               ; preds = %22
  %38 = load ptr, ptr %8, align 8
  %39 = load i32, ptr %10, align 4
  %40 = sext i32 %39 to i64
  %41 = getelementptr inbounds i8, ptr %38, i64 %40
  %42 = load i8, ptr %41, align 1
  %43 = sext i8 %42 to i32
  %44 = icmp eq i32 %43, 110
  br label %45

45:                                               ; preds = %37, %22
  %46 = phi i1 [ false, %22 ], [ %44, %37 ]
  %47 = load ptr, ptr %11, align 8
  %48 = getelementptr inbounds nuw %struct.ParamExternData, ptr %47, i32 0, i32 1
  %49 = zext i1 %46 to i8
  store i8 %49, ptr %48, align 8
  %50 = load ptr, ptr %11, align 8
  %51 = getelementptr inbounds nuw %struct.ParamExternData, ptr %50, i32 0, i32 2
  store i16 1, ptr %51, align 2
  %52 = load ptr, ptr %6, align 8
  %53 = load i32, ptr %10, align 4
  %54 = sext i32 %53 to i64
  %55 = getelementptr inbounds i32, ptr %52, i64 %54
  %56 = load i32, ptr %55, align 4
  %57 = load ptr, ptr %11, align 8
  %58 = getelementptr inbounds nuw %struct.ParamExternData, ptr %57, i32 0, i32 3
  store i32 %56, ptr %58, align 4
  call void @llvm.lifetime.end.p0(i64 8, ptr %11) #9
  br label %59

59:                                               ; preds = %45
  %60 = load i32, ptr %10, align 4
  %61 = add i32 %60, 1
  store i32 %61, ptr %10, align 4
  br label %17, !llvm.loop !13

62:                                               ; preds = %21
  br label %64

63:                                               ; preds = %4
  store ptr null, ptr %9, align 8
  br label %64

64:                                               ; preds = %63, %62
  %65 = load ptr, ptr %9, align 8
  call void @llvm.lifetime.end.p0(i64 8, ptr %9) #9
  ret ptr %65
}

; Function Attrs: nounwind uwtable
define internal i32 @_SPI_begin_call(i1 noundef zeroext %0) #0 {
  %2 = alloca i32, align 4
  %3 = alloca i8, align 1
  %4 = zext i1 %0 to i8
  store i8 %4, ptr %3, align 1
  %5 = load ptr, ptr @_SPI_current, align 8
  %6 = icmp eq ptr %5, null
  br i1 %6, label %7, label %8

7:                                                ; preds = %1
  store i32 -4, ptr %2, align 4
  br label %17

8:                                                ; preds = %1
  %9 = load i8, ptr %3, align 1, !range !4, !noundef !5
  %10 = trunc i8 %9 to i1
  br i1 %10, label %11, label %16

11:                                               ; preds = %8
  %12 = call i32 @GetCurrentSubTransactionId()
  %13 = load ptr, ptr @_SPI_current, align 8
  %14 = getelementptr inbounds nuw %struct._SPI_connection, ptr %13, i32 0, i32 2
  store i32 %12, ptr %14, align 8
  %15 = call ptr @_SPI_execmem()
  br label %16

16:                                               ; preds = %11, %8
  store i32 0, ptr %2, align 4
  br label %17

17:                                               ; preds = %16, %7
  %18 = load i32, ptr %2, align 4
  ret i32 %18
}

; Function Attrs: nounwind uwtable
define dso_local i32 @SPI_execute_plan(ptr noundef %0, ptr noundef %1, ptr noundef %2, i1 noundef zeroext %3, i64 noundef %4) #0 {
  %6 = alloca i32, align 4
  %7 = alloca ptr, align 8
  %8 = alloca ptr, align 8
  %9 = alloca ptr, align 8
  %10 = alloca i8, align 1
  %11 = alloca i64, align 8
  %12 = alloca %struct.SPIExecuteOptions, align 8
  %13 = alloca i32, align 4
  %14 = alloca i32, align 4
  store ptr %0, ptr %7, align 8
  store ptr %1, ptr %8, align 8
  store ptr %2, ptr %9, align 8
  %15 = zext i1 %3 to i8
  store i8 %15, ptr %10, align 1
  store i64 %4, ptr %11, align 8
  call void @llvm.lifetime.start.p0(i64 40, ptr %12) #9
  call void @llvm.lifetime.start.p0(i64 4, ptr %13) #9
  %16 = load ptr, ptr %7, align 8
  %17 = icmp eq ptr %16, null
  br i1 %17, label %26, label %18

18:                                               ; preds = %5
  %19 = load ptr, ptr %7, align 8
  %20 = getelementptr inbounds nuw %struct._SPI_plan, ptr %19, i32 0, i32 0
  %21 = load i32, ptr %20, align 8
  %22 = icmp ne i32 %21, 569278163
  br i1 %22, label %26, label %23

23:                                               ; preds = %18
  %24 = load i64, ptr %11, align 8
  %25 = icmp slt i64 %24, 0
  br i1 %25, label %26, label %27

26:                                               ; preds = %23, %18, %5
  store i32 -6, ptr %6, align 4
  store i32 1, ptr %14, align 4
  br label %63

27:                                               ; preds = %23
  %28 = load ptr, ptr %7, align 8
  %29 = getelementptr inbounds nuw %struct._SPI_plan, ptr %28, i32 0, i32 7
  %30 = load i32, ptr %29, align 8
  %31 = icmp sgt i32 %30, 0
  br i1 %31, label %32, label %36

32:                                               ; preds = %27
  %33 = load ptr, ptr %8, align 8
  %34 = icmp eq ptr %33, null
  br i1 %34, label %35, label %36

35:                                               ; preds = %32
  store i32 -7, ptr %6, align 4
  store i32 1, ptr %14, align 4
  br label %63

36:                                               ; preds = %32, %27
  %37 = call i32 @_SPI_begin_call(i1 noundef zeroext true)
  store i32 %37, ptr %13, align 4
  %38 = load i32, ptr %13, align 4
  %39 = icmp slt i32 %38, 0
  br i1 %39, label %40, label %42

40:                                               ; preds = %36
  %41 = load i32, ptr %13, align 4
  store i32 %41, ptr %6, align 4
  store i32 1, ptr %14, align 4
  br label %63

42:                                               ; preds = %36
  call void @llvm.memset.p0.i64(ptr align 8 %12, i8 0, i64 40, i1 false)
  %43 = load ptr, ptr %7, align 8
  %44 = getelementptr inbounds nuw %struct._SPI_plan, ptr %43, i32 0, i32 7
  %45 = load i32, ptr %44, align 8
  %46 = load ptr, ptr %7, align 8
  %47 = getelementptr inbounds nuw %struct._SPI_plan, ptr %46, i32 0, i32 8
  %48 = load ptr, ptr %47, align 8
  %49 = load ptr, ptr %8, align 8
  %50 = load ptr, ptr %9, align 8
  %51 = call ptr @_SPI_convert_params(i32 noundef %45, ptr noundef %48, ptr noundef %49, ptr noundef %50)
  %52 = getelementptr inbounds nuw %struct.SPIExecuteOptions, ptr %12, i32 0, i32 0
  store ptr %51, ptr %52, align 8
  %53 = load i8, ptr %10, align 1, !range !4, !noundef !5
  %54 = trunc i8 %53 to i1
  %55 = getelementptr inbounds nuw %struct.SPIExecuteOptions, ptr %12, i32 0, i32 1
  %56 = zext i1 %54 to i8
  store i8 %56, ptr %55, align 8
  %57 = load i64, ptr %11, align 8
  %58 = getelementptr inbounds nuw %struct.SPIExecuteOptions, ptr %12, i32 0, i32 4
  store i64 %57, ptr %58, align 8
  %59 = load ptr, ptr %7, align 8
  %60 = call i32 @_SPI_execute_plan(ptr noundef %59, ptr noundef %12, ptr noundef null, ptr noundef null, i1 noundef zeroext true)
  store i32 %60, ptr %13, align 4
  %61 = call i32 @_SPI_end_call(i1 noundef zeroext true)
  %62 = load i32, ptr %13, align 4
  store i32 %62, ptr %6, align 4
  store i32 1, ptr %14, align 4
  br label %63

63:                                               ; preds = %42, %40, %35, %26
  call void @llvm.lifetime.end.p0(i64 4, ptr %13) #9
  call void @llvm.lifetime.end.p0(i64 40, ptr %12) #9
  %64 = load i32, ptr %6, align 4
  ret i32 %64
}