; Function Attrs: nounwind uwtable
define dso_local i32 @SPI_execute_plan(ptr noundef readonly captures(address_is_null) %0, ptr noundef readonly captures(address_is_null) %1, ptr noundef readonly captures(address_is_null) %2, i1 noundef zeroext %3, i64 noundef %4) local_unnamed_addr #0 {
  %6 = alloca %struct.SPIExecuteOptions, align 8
  %7 = zext i1 %3 to i8
  call void @llvm.lifetime.start.p0(i64 40, ptr nonnull %6) #15
  %8 = icmp eq ptr %0, null
  br i1 %8, label %_SPI_begin_call.exit, label %9

9:                                                ; preds = %5
  %10 = load i32, ptr %0, align 8
  %11 = icmp ne i32 %10, 569278163
  %12 = icmp slt i64 %4, 0
  %or.cond = or i1 %12, %11
  br i1 %or.cond, label %_SPI_begin_call.exit, label %13

13:                                               ; preds = %9
  %14 = getelementptr inbounds nuw i8, ptr %0, i64 32
  %15 = load i32, ptr %14, align 8
  %16 = icmp sgt i32 %15, 0
  %17 = icmp eq ptr %1, null
  %or.cond3 = and i1 %17, %16
  br i1 %or.cond3, label %_SPI_begin_call.exit, label %18

18:                                               ; preds = %13
  %19 = load ptr, ptr @_SPI_current, align 8
  %.not = icmp eq ptr %19, null
  br i1 %.not, label %_SPI_begin_call.exit, label %_SPI_begin_call.exit.thread

_SPI_begin_call.exit.thread:                      ; preds = %18
  %20 = tail call i32 @GetCurrentSubTransactionId() #15
  %21 = load ptr, ptr @_SPI_current, align 8
  %22 = getelementptr inbounds nuw i8, ptr %21, i64 16
  store i32 %20, ptr %22, align 8
  %23 = getelementptr inbounds nuw i8, ptr %21, i64 40
  %24 = load ptr, ptr %23, align 8
  store ptr %24, ptr @CurrentMemoryContext, align 8
  %25 = getelementptr inbounds nuw i8, ptr %6, i64 8
  call void @llvm.memset.p0.i64(ptr noundef nonnull align 8 dereferenceable(40) %25, i8 0, i64 32, i1 false)
  %26 = load i32, ptr %14, align 8
  %27 = getelementptr inbounds nuw i8, ptr %0, i64 40
  %28 = load ptr, ptr %27, align 8
  %29 = icmp sgt i32 %26, 0
  br i1 %29, label %30, label %_SPI_convert_params.exit

30:                                               ; preds = %_SPI_begin_call.exit.thread
  %31 = tail call ptr @makeParamList(i32 noundef %26) #15
  %32 = getelementptr inbounds nuw i8, ptr %31, i64 64
  %.not.i = icmp eq ptr %2, null
  %wide.trip.count27.i = zext nneg i32 %26 to i64
  br i1 %.not.i, label %.split.us.i, label %.split.i

.split.us.i:                                      ; preds = %30, %.split.us.i
  %indvars.iv24.i = phi i64 [ %indvars.iv.next25.i, %.split.us.i ], [ 0, %30 ]
  %33 = getelementptr inbounds nuw [0 x %struct.ParamExternData], ptr %32, i64 0, i64 %indvars.iv24.i
  %34 = getelementptr inbounds nuw i64, ptr %1, i64 %indvars.iv24.i
  %35 = load i64, ptr %34, align 8
  store i64 %35, ptr %33, align 8
  %36 = getelementptr inbounds nuw i8, ptr %33, i64 8
  store i8 0, ptr %36, align 8
  %37 = getelementptr inbounds nuw i8, ptr %33, i64 10
  store i16 1, ptr %37, align 2
  %38 = getelementptr inbounds nuw i32, ptr %28, i64 %indvars.iv24.i
  %39 = load i32, ptr %38, align 4
  %40 = getelementptr inbounds nuw i8, ptr %33, i64 12
  store i32 %39, ptr %40, align 4
  %indvars.iv.next25.i = add nuw nsw i64 %indvars.iv24.i, 1
  %exitcond28.not.i = icmp eq i64 %indvars.iv.next25.i, %wide.trip.count27.i
  br i1 %exitcond28.not.i, label %_SPI_convert_params.exit, label %.split.us.i, !llvm.loop !9

.split.i:                                         ; preds = %30, %.split.i
  %indvars.iv.i = phi i64 [ %indvars.iv.next.i, %.split.i ], [ 0, %30 ]
  %41 = getelementptr inbounds nuw [0 x %struct.ParamExternData], ptr %32, i64 0, i64 %indvars.iv.i
  %42 = getelementptr inbounds nuw i64, ptr %1, i64 %indvars.iv.i
  %43 = load i64, ptr %42, align 8
  store i64 %43, ptr %41, align 8
  %44 = getelementptr inbounds nuw i8, ptr %2, i64 %indvars.iv.i
  %45 = load i8, ptr %44, align 1
  %46 = icmp eq i8 %45, 110
  %47 = zext i1 %46 to i8
  %48 = getelementptr inbounds nuw i8, ptr %41, i64 8
  store i8 %47, ptr %48, align 8
  %49 = getelementptr inbounds nuw i8, ptr %41, i64 10
  store i16 1, ptr %49, align 2
  %50 = getelementptr inbounds nuw i32, ptr %28, i64 %indvars.iv.i
  %51 = load i32, ptr %50, align 4
  %52 = getelementptr inbounds nuw i8, ptr %41, i64 12
  store i32 %51, ptr %52, align 4
  %indvars.iv.next.i = add nuw nsw i64 %indvars.iv.i, 1
  %exitcond.not.i = icmp eq i64 %indvars.iv.next.i, %wide.trip.count27.i
  br i1 %exitcond.not.i, label %_SPI_convert_params.exit, label %.split.i, !llvm.loop !9

_SPI_convert_params.exit:                         ; preds = %.split.i, %.split.us.i, %_SPI_begin_call.exit.thread
  %.0.i21 = phi ptr [ null, %_SPI_begin_call.exit.thread ], [ %31, %.split.us.i ], [ %31, %.split.i ]
  store ptr %.0.i21, ptr %6, align 8
  %53 = getelementptr inbounds nuw i8, ptr %6, i64 8
  store i8 %7, ptr %53, align 8
  %54 = getelementptr inbounds nuw i8, ptr %6, i64 16
  store i64 %4, ptr %54, align 8
  %55 = call fastcc i32 @_SPI_execute_plan(ptr noundef %0, ptr noundef %6, ptr noundef null, ptr noundef null, i1 noundef zeroext true)
  %56 = load ptr, ptr @_SPI_current, align 8
  %57 = getelementptr inbounds nuw i8, ptr %56, i64 32
  %58 = load ptr, ptr %57, align 8
  store ptr %58, ptr @CurrentMemoryContext, align 8
  %59 = getelementptr inbounds nuw i8, ptr %56, i64 16
  store i32 0, ptr %59, align 8
  %60 = getelementptr inbounds nuw i8, ptr %56, i64 40
  %61 = load ptr, ptr %60, align 8
  tail call void @MemoryContextReset(ptr noundef %61) #15
  br label %_SPI_begin_call.exit

_SPI_begin_call.exit:                             ; preds = %18, %13, %5, %9, %_SPI_convert_params.exit
  %.0 = phi i32 [ %55, %_SPI_convert_params.exit ], [ -6, %9 ], [ -6, %5 ], [ -7, %13 ], [ -4, %18 ]
  call void @llvm.lifetime.end.p0(i64 40, ptr nonnull %6) #15
  ret i32 %.0
}